(dp1
I0
Vaffirm
p2
sI1
Vcar_model
p3
sI2
Vchitchat
p4
sI3
Vexpire_date
p5
sI4
Vgoodbye
p6
sI5
Vgreet
p7
sI6
Vname
p8
sI7
Vpricing
p9
sI8
Vstop
p10
sI9
Vthank
p11
sI10
Vuser_dob
p12
sI11
Vyear_model
p13
s.